; Function Attrs: mustprogress nofree norecurse nosync nounwind willreturn memory(argmem: readwrite) uwtable
define void @_ZN32pxrInternal_v0_24__pxrReserved__10GfMatrix2dC2ERKNS_10GfMatrix2fE(ptr noundef nonnull writeonly align 8 captures(none) dereferenceable(32) initializes((0, 32)) %0, ptr noundef nonnull readonly align 4 captures(none) dereferenceable(16) %1) unnamed_addr #2 align 2 {
  %3 = load float, ptr %1, align 4
  %4 = fpext float %3 to double
  %5 = getelementptr inbounds nuw i8, ptr %1, i64 4
  %6 = load float, ptr %5, align 4
  %7 = fpext float %6 to double
  %8 = getelementptr inbounds nuw i8, ptr %1, i64 8
  %9 = load float, ptr %8, align 4
  %10 = fpext float %9 to double
  %11 = getelementptr inbounds nuw i8, ptr %1, i64 12
  %12 = load float, ptr %11, align 4
  %13 = fpext float %12 to double
  store double %4, ptr %0, align 8
  %14 = getelementptr inbounds nuw i8, ptr %0, i64 8
  store double %7, ptr %14, align 8
  %15 = getelementptr inbounds nuw i8, ptr %0, i64 16
  store double %10, ptr %15, align 8
  %16 = getelementptr inbounds nuw i8, ptr %0, i64 24
  store double %13, ptr %16, align 8
  ret void
}